target datalayout = "e-m:e-p270:32:32-p271:32:32-p272:64:64-i64:64-i128:128-f80:128-n8:16:32:64-S128"
target triple = "x86_64-unknown-linux-gnu"

%struct.ecc_point = type { [1 x %struct.sp_int], [1 x %struct.sp_int], [1 x %struct.sp_int] }
%struct.sp_int = type { i32, i32, [129 x i64] }

; Function Attrs: nounwind uwtable
define internal void @wc_ecc_del_point_ex(ptr noundef %p, ptr noundef %heap) #0 {
entry:
  %p.addr = alloca ptr, align 8
  %heap.addr = alloca ptr, align 8
  %xp = alloca ptr, align 8
  store ptr %p, ptr %p.addr, align 8
  store ptr %heap, ptr %heap.addr, align 8
  %0 = load ptr, ptr %p.addr, align 8
  %cmp = icmp ne ptr %0, null
  br i1 %cmp, label %if.then, label %if.end4

if.then:                                          ; preds = %entry
  %1 = load ptr, ptr %p.addr, align 8
  %x = getelementptr inbounds %struct.ecc_point, ptr %1, i32 0, i32 0
  %arraydecay = getelementptr inbounds [1 x %struct.sp_int], ptr %x, i64 0, i64 0
  call void @sp_clear(ptr noundef %arraydecay)
  %2 = load ptr, ptr %p.addr, align 8
  %y = getelementptr inbounds %struct.ecc_point, ptr %2, i32 0, i32 1
  %arraydecay1 = getelementptr inbounds [1 x %struct.sp_int], ptr %y, i64 0, i64 0
  call void @sp_clear(ptr noundef %arraydecay1)
  %3 = load ptr, ptr %p.addr, align 8
  %z = getelementptr inbounds %struct.ecc_point, ptr %3, i32 0, i32 2
  %arraydecay2 = getelementptr inbounds [1 x %struct.sp_int], ptr %z, i64 0, i64 0
  call void @sp_clear(ptr noundef %arraydecay2)
  %4 = load ptr, ptr %p.addr, align 8
  store ptr %4, ptr %xp, align 8
  %5 = load ptr, ptr %xp, align 8
  %tobool = icmp ne ptr %5, null
  br i1 %tobool, label %if.then3, label %if.end

if.then3:                                         ; preds = %if.then
  %6 = load ptr, ptr %xp, align 8
  call void @wolfSSL_Free(ptr noundef %6)
  br label %if.end

if.end:                                           ; preds = %if.then3, %if.then
  br label %if.end4

if.end4:                                          ; preds = %if.end, %entry
  ret void
}

; Function Attrs: nounwind uwtable
define void @wc_ecc_del_point_h(ptr noundef %p, ptr noundef %heap) #0 {
entry:
  %p.addr = alloca ptr, align 8
  %heap.addr = alloca ptr, align 8
  store ptr %p, ptr %p.addr, align 8
  store ptr %heap, ptr %heap.addr, align 8
  %0 = load ptr, ptr %p.addr, align 8
  %1 = load ptr, ptr %heap.addr, align 8
  call void @wc_ecc_del_point_ex(ptr noundef %0, ptr noundef %1)
  ret void
}